; Function Attrs: mustprogress nounwind uwtable
define void @_ZN6ImFontD2Ev(ptr noundef nonnull align 8 captures(none) dereferenceable(114) initializes((16, 24)) %0) unnamed_addr #11 align 2 personality ptr @__gxx_personality_v0 {
  %2 = getelementptr inbounds nuw i8, ptr %0, i64 20
  store float 0.000000e+00, ptr %2, align 4, !tbaa !149
  %3 = getelementptr inbounds nuw i8, ptr %0, i64 16
  store float 0.000000e+00, ptr %3, align 8, !tbaa !507
  %4 = getelementptr inbounds nuw i8, ptr %0, i64 48
  %5 = load ptr, ptr %4, align 8, !tbaa !508
  %.not.i.i = icmp eq ptr %5, null
  br i1 %.not.i.i, label %_ZN8ImVectorI11ImFontGlyphE5clearEv.exit.i, label %6

6:                                                ; preds = %1
  %7 = getelementptr inbounds nuw i8, ptr %0, i64 40
  %8 = getelementptr inbounds nuw i8, ptr %0, i64 44
  store i32 0, ptr %8, align 4, !tbaa !509
  store i32 0, ptr %7, align 8, !tbaa !510
  invoke void @_ZN5ImGui7MemFreeEPv(ptr noundef nonnull %5)
          to label %.noexc unwind label %39

.noexc:                                           ; preds = %6
  store ptr null, ptr %4, align 8, !tbaa !508
  br label %_ZN8ImVectorI11ImFontGlyphE5clearEv.exit.i

_ZN8ImVectorI11ImFontGlyphE5clearEv.exit.i:       ; preds = %.noexc, %1
  %9 = getelementptr inbounds nuw i8, ptr %0, i64 8
  %10 = load ptr, ptr %9, align 8, !tbaa !511
  %.not.i1.i = icmp eq ptr %10, null
  br i1 %.not.i1.i, label %_ZN8ImVectorIfE5clearEv.exit.i, label %11

11:                                               ; preds = %_ZN8ImVectorI11ImFontGlyphE5clearEv.exit.i
  %12 = getelementptr inbounds nuw i8, ptr %0, i64 4
  store i32 0, ptr %12, align 4, !tbaa !512
  store i32 0, ptr %0, align 8, !tbaa !513
  invoke void @_ZN5ImGui7MemFreeEPv(ptr noundef nonnull %10)
          to label %.noexc1 unwind label %39

.noexc1:                                          ; preds = %11
  store ptr null, ptr %9, align 8, !tbaa !511
  br label %_ZN8ImVectorIfE5clearEv.exit.i

_ZN8ImVectorIfE5clearEv.exit.i:                   ; preds = %.noexc1, %_ZN8ImVectorI11ImFontGlyphE5clearEv.exit.i
  %13 = getelementptr inbounds nuw i8, ptr %0, i64 32
  %14 = load ptr, ptr %13, align 8, !tbaa !50
  %.not.i2.i = icmp eq ptr %14, null
  br i1 %.not.i2.i, label %18, label %15

15:                                               ; preds = %_ZN8ImVectorIfE5clearEv.exit.i
  %16 = getelementptr inbounds nuw i8, ptr %0, i64 24
  %17 = getelementptr inbounds nuw i8, ptr %0, i64 28
  store i32 0, ptr %17, align 4, !tbaa !54
  store i32 0, ptr %16, align 8, !tbaa !55
  invoke void @_ZN5ImGui7MemFreeEPv(ptr noundef nonnull %14)
          to label %.noexc2 unwind label %39

.noexc2:                                          ; preds = %15
  store ptr null, ptr %13, align 8, !tbaa !50
  br label %18

18:                                               ; preds = %.noexc2, %_ZN8ImVectorIfE5clearEv.exit.i
  %19 = getelementptr inbounds nuw i8, ptr %0, i64 56
  %20 = getelementptr inbounds nuw i8, ptr %0, i64 112
  tail call void @llvm.memset.p0.i64(ptr noundef nonnull align 8 dereferenceable(16) %19, i8 0, i64 16, i1 false)
  store i8 1, ptr %20, align 8, !tbaa !514
  %21 = getelementptr inbounds nuw i8, ptr %0, i64 104
  store float 0.000000e+00, ptr %21, align 8, !tbaa !517
  %22 = getelementptr inbounds nuw i8, ptr %0, i64 100
  store float 0.000000e+00, ptr %22, align 4, !tbaa !506
  %23 = getelementptr inbounds nuw i8, ptr %0, i64 108
  store i32 0, ptr %23, align 4, !tbaa !515
  %24 = getelementptr inbounds nuw i8, ptr %0, i64 113
  store i8 0, ptr %24, align 1
  %25 = load ptr, ptr %4, align 8, !tbaa !508
  %.not.i = icmp eq ptr %25, null
  br i1 %.not.i, label %_ZN8ImVectorItED2Ev.exit, label %26

26:                                               ; preds = %18
  invoke void @_ZN5ImGui7MemFreeEPv(ptr noundef nonnull %25)
          to label %_ZN8ImVectorI11ImFontGlyphED2Ev.exit unwind label %27

27:                                               ; preds = %26
  %28 = landingpad { ptr, i32 }
          catch ptr null
  %29 = extractvalue { ptr, i32 } %28, 0
  tail call void @__clang_call_terminate(ptr %29) #43
  unreachable

_ZN8ImVectorI11ImFontGlyphED2Ev.exit:             ; preds = %26
  %.pre = load ptr, ptr %13, align 8, !tbaa !50
  %.not.i3 = icmp eq ptr %.pre, null
  br i1 %.not.i3, label %_ZN8ImVectorItED2Ev.exit, label %30

30:                                               ; preds = %_ZN8ImVectorI11ImFontGlyphED2Ev.exit
  invoke void @_ZN5ImGui7MemFreeEPv(ptr noundef nonnull %.pre)
          to label %_ZN8ImVectorItED2Ev.exit unwind label %31

31:                                               ; preds = %30
  %32 = landingpad { ptr, i32 }
          catch ptr null
  %33 = extractvalue { ptr, i32 } %32, 0
  tail call void @__clang_call_terminate(ptr %33) #43
  unreachable

_ZN8ImVectorItED2Ev.exit:                         ; preds = %18, %_ZN8ImVectorI11ImFontGlyphED2Ev.exit, %30
  %34 = load ptr, ptr %9, align 8, !tbaa !511
  %.not.i4 = icmp eq ptr %34, null
  br i1 %.not.i4, label %_ZN8ImVectorIfED2Ev.exit, label %35

35:                                               ; preds = %_ZN8ImVectorItED2Ev.exit
  invoke void @_ZN5ImGui7MemFreeEPv(ptr noundef nonnull %34)
          to label %_ZN8ImVectorIfED2Ev.exit unwind label %36

36:                                               ; preds = %35
  %37 = landingpad { ptr, i32 }
          catch ptr null
  %38 = extractvalue { ptr, i32 } %37, 0
  tail call void @__clang_call_terminate(ptr %38) #43
  unreachable

_ZN8ImVectorIfED2Ev.exit:                         ; preds = %_ZN8ImVectorItED2Ev.exit, %35
  ret void

39:                                               ; preds = %15, %11, %6
  %40 = landingpad { ptr, i32 }
          catch ptr null
  %41 = extractvalue { ptr, i32 } %40, 0
  tail call void @__clang_call_terminate(ptr %41) #43
  unreachable
}